target datalayout = "e-m:e-p270:32:32-p271:32:32-p272:64:64-i64:64-i128:128-f80:128-n8:16:32:64-S128"
target triple = "x86_64-pc-linux-gnu"

%struct.H5FA_dblock_t = type { %struct.H5C_cache_entry_t, ptr, ptr, ptr, ptr, i64, i64, i64, i64, i64, i64, i64 }
%struct.H5C_cache_entry_t = type { ptr, i64, i64, ptr, i8, ptr, i8, i8, i8, i8, i32, i8, i8, i8, i8, i8, i32, ptr, i32, i32, i32, i32, i32, i8, i8, ptr, ptr, ptr, ptr, ptr, ptr, i8, i32, i8, i64, ptr, i64, i64, i32, i8, i32, i32, i8, ptr, ptr, ptr }
%struct.H5FA_hdr_t = type { %struct.H5C_cache_entry_t, %struct.H5FA_create_t, i64, %struct.H5FA_stat_t, i64, i64, i64, ptr, i64, i8, i64, i64, ptr, i8, ptr, ptr }
%struct.H5FA_create_t = type { ptr, i8, i8, i64 }
%struct.H5FA_stat_t = type { i64, i64, i64 }
%struct.H5FA_dblock_cache_ud_t = type { ptr, i64 }

@H5FA_init_g = external global i8, align 1
@H5_libterm_g = external global i8, align 1

; Function Attrs: nounwind uwtable
define internal i32 @H5FA__cache_dblock_get_initial_load_size(ptr noundef %0, ptr noundef %1) #0 {
  %3 = alloca ptr, align 8
  %4 = alloca ptr, align 8
  %5 = alloca ptr, align 8
  %6 = alloca %struct.H5FA_dblock_t, align 8
  %7 = alloca i64, align 8
  store ptr %0, ptr %3, align 8, !tbaa !3
  store ptr %1, ptr %4, align 8, !tbaa !7
  call void @llvm.lifetime.start.p0(i64 8, ptr %5) #7
  %8 = load ptr, ptr %3, align 8, !tbaa !3
  store ptr %8, ptr %5, align 8, !tbaa !67
  call void @llvm.lifetime.start.p0(i64 336, ptr %6) #7
  call void @llvm.lifetime.start.p0(i64 8, ptr %7) #7
  %9 = load i8, ptr @H5FA_init_g, align 1, !tbaa !11, !range !13, !noundef !14
  %10 = trunc i8 %9 to i1
  br i1 %10, label %15, label %11

11:                                               ; preds = %2
  %12 = load i8, ptr @H5_libterm_g, align 1, !tbaa !11, !range !13, !noundef !14
  %13 = trunc i8 %12 to i1
  %14 = xor i1 %13, true
  br label %15

15:                                               ; preds = %11, %2
  %16 = phi i1 [ true, %2 ], [ %14, %11 ]
  %17 = xor i1 %16, true
  %18 = xor i1 %17, true
  %19 = zext i1 %18 to i32
  %20 = sext i32 %19 to i64
  %21 = call i64 @llvm.expect.i64(i64 %20, i64 1)
  %22 = icmp ne i64 %21, 0
  br i1 %22, label %23, label %105

23:                                               ; preds = %15
  call void @llvm.memset.p0.i64(ptr align 8 %6, i8 0, i64 336, i1 false)
  %24 = load ptr, ptr %5, align 8, !tbaa !67
  %25 = getelementptr inbounds nuw %struct.H5FA_dblock_cache_ud_t, ptr %24, i32 0, i32 0
  %26 = load ptr, ptr %25, align 8, !tbaa !69
  %27 = getelementptr inbounds nuw %struct.H5FA_dblock_t, ptr %6, i32 0, i32 3
  store ptr %26, ptr %27, align 8, !tbaa !50
  %28 = load ptr, ptr %5, align 8, !tbaa !67
  %29 = getelementptr inbounds nuw %struct.H5FA_dblock_cache_ud_t, ptr %28, i32 0, i32 0
  %30 = load ptr, ptr %29, align 8, !tbaa !69
  %31 = getelementptr inbounds nuw %struct.H5FA_hdr_t, ptr %30, i32 0, i32 1
  %32 = getelementptr inbounds nuw %struct.H5FA_create_t, ptr %31, i32 0, i32 2
  %33 = load i8, ptr %32, align 1, !tbaa !45
  %34 = zext i8 %33 to i32
  %35 = zext i32 %34 to i64
  %36 = shl i64 1, %35
  store i64 %36, ptr %7, align 8, !tbaa !19
  %37 = load ptr, ptr %5, align 8, !tbaa !67
  %38 = getelementptr inbounds nuw %struct.H5FA_dblock_cache_ud_t, ptr %37, i32 0, i32 0
  %39 = load ptr, ptr %38, align 8, !tbaa !69
  %40 = getelementptr inbounds nuw %struct.H5FA_hdr_t, ptr %39, i32 0, i32 1
  %41 = getelementptr inbounds nuw %struct.H5FA_create_t, ptr %40, i32 0, i32 3
  %42 = load i64, ptr %41, align 8, !tbaa !46
  %43 = load i64, ptr %7, align 8, !tbaa !19
  %44 = icmp ugt i64 %42, %43
  br i1 %44, label %45, label %63

45:                                               ; preds = %23
  %46 = load ptr, ptr %5, align 8, !tbaa !67
  %47 = getelementptr inbounds nuw %struct.H5FA_dblock_cache_ud_t, ptr %46, i32 0, i32 0
  %48 = load ptr, ptr %47, align 8, !tbaa !69
  %49 = getelementptr inbounds nuw %struct.H5FA_hdr_t, ptr %48, i32 0, i32 1
  %50 = getelementptr inbounds nuw %struct.H5FA_create_t, ptr %49, i32 0, i32 3
  %51 = load i64, ptr %50, align 8, !tbaa !46
  %52 = load i64, ptr %7, align 8, !tbaa !19
  %53 = add i64 %51, %52
  %54 = sub i64 %53, 1
  %55 = load i64, ptr %7, align 8, !tbaa !19
  %56 = udiv i64 %54, %55
  %57 = getelementptr inbounds nuw %struct.H5FA_dblock_t, ptr %6, i32 0, i32 7
  store i64 %56, ptr %57, align 8, !tbaa !53
  %58 = getelementptr inbounds nuw %struct.H5FA_dblock_t, ptr %6, i32 0, i32 7
  %59 = load i64, ptr %58, align 8, !tbaa !53
  %60 = add i64 %59, 7
  %61 = udiv i64 %60, 8
  %62 = getelementptr inbounds nuw %struct.H5FA_dblock_t, ptr %6, i32 0, i32 11
  store i64 %61, ptr %62, align 8, !tbaa !52
  br label %63

63:                                               ; preds = %45, %23
  %64 = getelementptr inbounds nuw %struct.H5FA_dblock_t, ptr %6, i32 0, i32 7
  %65 = load i64, ptr %64, align 8, !tbaa !53
  %66 = icmp ne i64 %65, 0
  br i1 %66, label %94, label %67

67:                                               ; preds = %63
  %68 = getelementptr inbounds nuw %struct.H5FA_dblock_t, ptr %6, i32 0, i32 3
  %69 = load ptr, ptr %68, align 8, !tbaa !50
  %70 = getelementptr inbounds nuw %struct.H5FA_hdr_t, ptr %69, i32 0, i32 10
  %71 = load i64, ptr %70, align 8, !tbaa !54
  %72 = add i64 10, %71
  %73 = getelementptr inbounds nuw %struct.H5FA_dblock_t, ptr %6, i32 0, i32 11
  %74 = load i64, ptr %73, align 8, !tbaa !52
  %75 = add i64 %72, %74
  %76 = getelementptr inbounds nuw %struct.H5FA_dblock_t, ptr %6, i32 0, i32 3
  %77 = load ptr, ptr %76, align 8, !tbaa !50
  %78 = getelementptr inbounds nuw %struct.H5FA_hdr_t, ptr %77, i32 0, i32 1
  %79 = getelementptr inbounds nuw %struct.H5FA_create_t, ptr %78, i32 0, i32 3
  %80 = load i64, ptr %79, align 8, !tbaa !46
  %81 = getelementptr inbounds nuw %struct.H5FA_dblock_t, ptr %6, i32 0, i32 3
  %82 = load ptr, ptr %81, align 8, !tbaa !50
  %83 = getelementptr inbounds nuw %struct.H5FA_hdr_t, ptr %82, i32 0, i32 1
  %84 = getelementptr inbounds nuw %struct.H5FA_create_t, ptr %83, i32 0, i32 1
  %85 = load i8, ptr %84, align 8, !tbaa !44
  %86 = zext i8 %85 to i64
  %87 = mul i64 %80, %86
  %88 = add i64 %75, %87
  %89 = getelementptr inbounds nuw %struct.H5FA_dblock_t, ptr %6, i32 0, i32 7
  %90 = load i64, ptr %89, align 8, !tbaa !53
  %91 = mul i64 %90, 4
  %92 = add i64 %88, %91
  %93 = load ptr, ptr %4, align 8, !tbaa !7
  store i64 %92, ptr %93, align 8, !tbaa !19
  br label %104

94:                                               ; preds = %63
  %95 = getelementptr inbounds nuw %struct.H5FA_dblock_t, ptr %6, i32 0, i32 3
  %96 = load ptr, ptr %95, align 8, !tbaa !50
  %97 = getelementptr inbounds nuw %struct.H5FA_hdr_t, ptr %96, i32 0, i32 10
  %98 = load i64, ptr %97, align 8, !tbaa !54
  %99 = add i64 10, %98
  %100 = getelementptr inbounds nuw %struct.H5FA_dblock_t, ptr %6, i32 0, i32 11
  %101 = load i64, ptr %100, align 8, !tbaa !52
  %102 = add i64 %99, %101
  %103 = load ptr, ptr %4, align 8, !tbaa !7
  store i64 %102, ptr %103, align 8, !tbaa !19
  br label %104

104:                                              ; preds = %94, %67
  br label %105

105:                                              ; preds = %104, %15
  call void @llvm.lifetime.end.p0(i64 8, ptr %7) #7
  call void @llvm.lifetime.end.p0(i64 336, ptr %6) #7
  call void @llvm.lifetime.end.p0(i64 8, ptr %5) #7
  ret i32 0
}