; Function Attrs: mustprogress nofree norecurse nosync nounwind willreturn memory(read, argmem: readwrite, inaccessiblemem: none) uwtable
define internal noundef i32 @H5FA__cache_dblock_get_initial_load_size(ptr noundef readonly captures(none) %0, ptr noundef writeonly captures(none) %1) #1 {
  %3 = load i8, ptr @H5FA_init_g, align 1, !tbaa !3, !range !7, !noundef !8
  %4 = trunc nuw i8 %3 to i1
  %5 = load i8, ptr @H5_libterm_g, align 1, !range !7
  %6 = trunc nuw i8 %5 to i1
  %7 = xor i1 %6, true
  %8 = select i1 %4, i1 true, i1 %7
  br i1 %8, label %9, label %38, !prof !9

9:                                                ; preds = %2
  %10 = load ptr, ptr %0, align 8, !tbaa !54
  %11 = getelementptr inbounds nuw i8, ptr %10, i64 257
  %12 = load i8, ptr %11, align 1, !tbaa !38
  %13 = zext nneg i8 %12 to i64
  %14 = shl nuw i64 1, %13
  %15 = getelementptr inbounds nuw i8, ptr %10, i64 264
  %16 = load i64, ptr %15, align 8, !tbaa !39
  %17 = icmp ugt i64 %16, %14
  br i1 %17, label %18, label %.thread

18:                                               ; preds = %9
  %19 = add i64 %16, -1
  %20 = add i64 %19, %14
  %21 = lshr i64 %20, %13
  %22 = icmp eq i64 %21, 0
  br i1 %22, label %.thread, label %31

.thread:                                          ; preds = %9, %18
  %23 = getelementptr inbounds nuw i8, ptr %10, i64 352
  %24 = load i64, ptr %23, align 8, !tbaa !43
  %25 = add i64 %24, 10
  %26 = getelementptr inbounds nuw i8, ptr %10, i64 256
  %27 = load i8, ptr %26, align 8, !tbaa !37
  %28 = zext i8 %27 to i64
  %29 = mul i64 %16, %28
  %30 = add i64 %25, %29
  br label %.sink.split

31:                                               ; preds = %18
  %32 = add i64 %21, 7
  %33 = lshr i64 %32, 3
  %34 = getelementptr inbounds nuw i8, ptr %10, i64 352
  %35 = load i64, ptr %34, align 8, !tbaa !43
  %36 = add nuw nsw i64 %33, 10
  %37 = add i64 %36, %35
  br label %.sink.split

.sink.split:                                      ; preds = %31, %.thread
  %.sink = phi i64 [ %30, %.thread ], [ %37, %31 ]
  store i64 %.sink, ptr %1, align 8, !tbaa !15
  br label %38

38:                                               ; preds = %.sink.split, %2
  ret i32 0
}